ccopy_reg
_reconstructor
p0
(cgoogle.oauth2.credentials
Credentials
p1
c__builtin__
object
p2
Ntp3
Rp4
(dp5
S'_quota_project_id'
p6
NsS'_token_uri'
p7
Vhttps://oauth2.googleapis.com/token
p8
sS'_scopes'
p9
(lp10
S'https://www.googleapis.com/auth/drive'
p11
asS'_default_scopes'
p12
NsS'expiry'
p13
cdatetime
datetime
p14
(S'\x07\xe5\t\x0b\x0e\x00\x0f\x0cC\xd3'
p15
tp16
Rp17
sS'token'
p18
Vya29.a0ARrdaM-QbERUizFjFrRRSQflan2FrNKhI7uZ-kAHM4AgZyRED9YG4I5dFKxs_jXwW1gNqwNbcBhtfFpkscrZ5c2ehL4avJgaUwdh5p_H6KzK95ku80QwTZ905jiBtWjNQFfxAX7aqXAA8QOUm1jyQn_nNyn8
p19
sS'_refresh_token'
p20
V1//0g5M7tGWxvlyzCgYIARAAGBASNwF-L9Ir_eTP95gXOYSvDvxlaa-9KEjQvugBHYSxIc71q3rjJEWuv9sFOYhwbwdlLNfYkDoLRiA
p21
sS'_client_secret'
p22
Vv00HzNKXGTIIxL2cJLRSgINJ
p23
sS'_client_id'
p24
V416810602924-c22pppnupdbfgn1etgadj6if71hs54mp.apps.googleusercontent.com
p25
sS'_id_token'
p26
NsS'_rapt_token'
p27
Nsb.