ccopy_reg
_reconstructor
p0
(cgoogle.oauth2.credentials
Credentials
p1
c__builtin__
object
p2
Ntp3
Rp4
(dp5
S'_quota_project_id'
p6
NsS'_token_uri'
p7
Vhttps://oauth2.googleapis.com/token
p8
sS'_scopes'
p9
(lp10
S'https://www.googleapis.com/auth/drive'
p11
asS'_default_scopes'
p12
NsS'expiry'
p13
cdatetime
datetime
p14
(S'\x07\xe5\t\x0b\x0f;.\x01/\x9b'
p15
tp16
Rp17
sS'token'
p18
Vya29.a0ARrdaM9TEETRpvtHPFl9IaJlTSisgGA0BIb2ns6LOwvKtc9NEDa_Os-RB1GSo6vHdTJ5BMYHoMGikiyK7UJ0iX1hmsYVSmD50FmWqd_2qbCvS4JrI6okxYRbbXXusFzVkdq8PPs_fCxxyeKYVmPencQFCiQ_
p19
sS'_refresh_token'
p20
V1//0g4G0TI6a2KpECgYIARAAGBASNwF-L9IrHynIUbKnU_FocOyejuHNDb70uxMcW1mQbiymY2thgvP4anxN01sV3_UHjgDHNe5SQTA
p21
sS'_client_secret'
p22
VXer2HJEiVjXZwJoKnNFgEgFd
p23
sS'_client_id'
p24
V305190351743-di3cp5h81o551di4p902v399ov1dvq5b.apps.googleusercontent.com
p25
sS'_id_token'
p26
NsS'_rapt_token'
p27
Nsb.