ccopy_reg
_reconstructor
p0
(cgoogle.oauth2.credentials
Credentials
p1
c__builtin__
object
p2
Ntp3
Rp4
(dp5
S'_quota_project_id'
p6
NsS'_token_uri'
p7
Vhttps://oauth2.googleapis.com/token
p8
sS'_scopes'
p9
(lp10
S'https://www.googleapis.com/auth/drive'
p11
asS'_default_scopes'
p12
NsS'expiry'
p13
cdatetime
datetime
p14
(S'\x07\xe5\t\x0b\x0f,\x00\x06[\x00'
p15
tp16
Rp17
sS'token'
p18
Vya29.a0ARrdaM9wwogYfu5MRQTdWKtAdmuOF427d8QEjy0ZKoD7iZoRVCeqz7oeR4tw-tV3yZUFjFX1xpmPA_uKRUrL9ruhRMqw2-zHwueYe7LUHnyc_tB8_iEQvessbm7fZ8z4D1zE6rElBUxuT7dLrYHW6dBdnvSy
p19
sS'_refresh_token'
p20
V1//0ghUI4ON65nJlCgYIARAAGBASNwF-L9Ir5w6-35-Tk5DVAeZLTgdC4Bukiitzz2ElevWk3ROo6DglE2IHgzjCA5afLCpWAx-v9jY
p21
sS'_client_secret'
p22
VXer2HJEiVjXZwJoKnNFgEgFd
p23
sS'_client_id'
p24
V305190351743-di3cp5h81o551di4p902v399ov1dvq5b.apps.googleusercontent.com
p25
sS'_id_token'
p26
NsS'_rapt_token'
p27
Nsb.