ccopy_reg
_reconstructor
p0
(cgoogle.oauth2.credentials
Credentials
p1
c__builtin__
object
p2
Ntp3
Rp4
(dp5
S'_quota_project_id'
p6
NsS'_token_uri'
p7
Vhttps://oauth2.googleapis.com/token
p8
sS'_scopes'
p9
(lp10
S'https://www.googleapis.com/auth/drive'
p11
asS'_default_scopes'
p12
NsS'expiry'
p13
cdatetime
datetime
p14
(S'\x07\xe5\t\x0b\x10\x13\x0b\x0b\x144'
p15
tp16
Rp17
sS'token'
p18
Vya29.a0ARrdaM-7svxUQe2onO4PVyz5XxdAEm9u450N9D9U8giJj2wDCbhPkNWu2iM8hGalH7J_goz3ZNsE5ECHSFMyK0Rwtj_64iNR8miifmllWKOL4UChbiYsdoLUaLnHCxW13EJydIqRkmitmwVa4qaobXs_nAk5
p19
sS'_refresh_token'
p20
V1//0gogcrC-DDVmMCgYIARAAGBASNwF-L9IrQOlZggbXyV8p3NUgmTAiJHmCstb-aOlpnVfvR6eHSElsRP5VMn9p3pc2TIbHUdnIg7E
p21
sS'_client_secret'
p22
Vp_RZ8nxGQumUKoHTl4xDwwBa
p23
sS'_client_id'
p24
V305190351743-3eqfts87o95c04gie2atml0f48cvuv7i.apps.googleusercontent.com
p25
sS'_id_token'
p26
NsS'_rapt_token'
p27
Nsb.